target datalayout = "e-m:e-p270:32:32-p271:32:32-p272:64:64-i64:64-i128:128-f80:128-n8:16:32:64-S128"
target triple = "x86_64-pc-linux-gnu"

%struct.cook = type { ptr, ptr, ptr, ptr, ptr, ptr, %struct.AudioDSPContext, %struct.GetBitContext, i32, i32, %struct.AVLFG, i32, ptr, ptr, ptr, [13 x %struct.VLC], [7 x %struct.VLC], i32, [31 x float], ptr, [8 x i8], [2048 x float], [1024 x float], [1024 x float], [1060 x float], [5 x ptr], i32, [5 x %struct.COOKSubpacket], [8 x i8] }
%struct.AudioDSPContext = type { ptr, ptr, ptr }
%struct.GetBitContext = type { ptr, ptr, i32, i32, i32 }
%struct.AVLFG = type { [64 x i32], i32 }
%struct.VLC = type { i32, ptr, i32, i32 }
%struct.COOKSubpacket = type { i32, i32, i32, i32, i32, i32, i32, i32, i32, i32, %struct.VLC, i32, i32, i32, i32, i32, [1024 x float], [1024 x float], %struct.cook_gains, %struct.cook_gains, [9 x i32], [9 x i32], [9 x i32], [9 x i32] }
%struct.cook_gains = type { ptr, ptr }

@rootpow2tab = internal global [127 x float] zeroinitializer, align 16
@dither_tab = internal constant [9 x float] [float 0.000000e+00, float 0.000000e+00, float 0.000000e+00, float 0.000000e+00, float 0.000000e+00, float 0x3FC6A0A100000000, float 2.500000e-01, float 0x3FE6A09EE0000000, float 1.000000e+00], align 16

; Function Attrs: inlinehint nounwind uwtable
define internal i32 @av_lfg_get(ptr noundef %0) #8 {
  %2 = alloca ptr, align 8
  %3 = alloca i32, align 4
  store ptr %0, ptr %2, align 8, !tbaa !138
  call void @llvm.lifetime.start.p0(i64 4, ptr %3) #11
  %4 = load ptr, ptr %2, align 8, !tbaa !138
  %5 = getelementptr inbounds nuw %struct.AVLFG, ptr %4, i32 0, i32 0
  %6 = load ptr, ptr %2, align 8, !tbaa !138
  %7 = getelementptr inbounds nuw %struct.AVLFG, ptr %6, i32 0, i32 1
  %8 = load i32, ptr %7, align 4, !tbaa !140
  %9 = sub nsw i32 %8, 24
  %10 = and i32 %9, 63
  %11 = sext i32 %10 to i64
  %12 = getelementptr inbounds [64 x i32], ptr %5, i64 0, i64 %11
  %13 = load i32, ptr %12, align 4, !tbaa !31
  %14 = load ptr, ptr %2, align 8, !tbaa !138
  %15 = getelementptr inbounds nuw %struct.AVLFG, ptr %14, i32 0, i32 0
  %16 = load ptr, ptr %2, align 8, !tbaa !138
  %17 = getelementptr inbounds nuw %struct.AVLFG, ptr %16, i32 0, i32 1
  %18 = load i32, ptr %17, align 4, !tbaa !140
  %19 = sub nsw i32 %18, 55
  %20 = and i32 %19, 63
  %21 = sext i32 %20 to i64
  %22 = getelementptr inbounds [64 x i32], ptr %15, i64 0, i64 %21
  %23 = load i32, ptr %22, align 4, !tbaa !31
  %24 = add i32 %13, %23
  %25 = load ptr, ptr %2, align 8, !tbaa !138
  %26 = getelementptr inbounds nuw %struct.AVLFG, ptr %25, i32 0, i32 0
  %27 = load ptr, ptr %2, align 8, !tbaa !138
  %28 = getelementptr inbounds nuw %struct.AVLFG, ptr %27, i32 0, i32 1
  %29 = load i32, ptr %28, align 4, !tbaa !140
  %30 = and i32 %29, 63
  %31 = sext i32 %30 to i64
  %32 = getelementptr inbounds [64 x i32], ptr %26, i64 0, i64 %31
  store i32 %24, ptr %32, align 4, !tbaa !31
  store i32 %24, ptr %3, align 4, !tbaa !31
  %33 = load ptr, ptr %2, align 8, !tbaa !138
  %34 = getelementptr inbounds nuw %struct.AVLFG, ptr %33, i32 0, i32 1
  %35 = load i32, ptr %34, align 4, !tbaa !140
  %36 = add i32 %35, 1
  store i32 %36, ptr %34, align 4, !tbaa !140
  %37 = load i32, ptr %3, align 4, !tbaa !31
  call void @llvm.lifetime.end.p0(i64 4, ptr %3) #11
  ret i32 %37
}

; Function Attrs: nounwind uwtable
define internal void @scalar_dequant_float(ptr noundef %0, i32 noundef %1, i32 noundef %2, ptr noundef %3, ptr noundef %4, ptr noundef %5) #1 {
  %7 = alloca ptr, align 8
  %8 = alloca i32, align 4
  %9 = alloca i32, align 4
  %10 = alloca ptr, align 8
  %11 = alloca ptr, align 8
  %12 = alloca ptr, align 8
  %13 = alloca i32, align 4
  %14 = alloca float, align 4
  store ptr %0, ptr %7, align 8, !tbaa !29
  store i32 %1, ptr %8, align 4, !tbaa !31
  store i32 %2, ptr %9, align 4, !tbaa !31
  store ptr %3, ptr %10, align 8, !tbaa !77
  store ptr %4, ptr %11, align 8, !tbaa !77
  store ptr %5, ptr %12, align 8, !tbaa !112
  call void @llvm.lifetime.start.p0(i64 4, ptr %13) #11
  call void @llvm.lifetime.start.p0(i64 4, ptr %14) #11
  store i32 0, ptr %13, align 4, !tbaa !31
  br label %15

15:                                               ; preds = %72, %6
  %16 = load i32, ptr %13, align 4, !tbaa !31
  %17 = icmp slt i32 %16, 20
  br i1 %17, label %18, label %75

18:                                               ; preds = %15
  %19 = load ptr, ptr %10, align 8, !tbaa !77
  %20 = load i32, ptr %13, align 4, !tbaa !31
  %21 = sext i32 %20 to i64
  %22 = getelementptr inbounds i32, ptr %19, i64 %21
  %23 = load i32, ptr %22, align 4, !tbaa !31
  %24 = icmp ne i32 %23, 0
  br i1 %24, label %25, label %47

25:                                               ; preds = %18
  %26 = load i32, ptr %8, align 4, !tbaa !31
  %27 = sext i32 %26 to i64
  %28 = getelementptr inbounds [7 x [14 x float]], ptr @quant_centroid_tab, i64 0, i64 %27
  %29 = load ptr, ptr %10, align 8, !tbaa !77
  %30 = load i32, ptr %13, align 4, !tbaa !31
  %31 = sext i32 %30 to i64
  %32 = getelementptr inbounds i32, ptr %29, i64 %31
  %33 = load i32, ptr %32, align 4, !tbaa !31
  %34 = sext i32 %33 to i64
  %35 = getelementptr inbounds [14 x float], ptr %28, i64 0, i64 %34
  %36 = load float, ptr %35, align 4, !tbaa !108
  store float %36, ptr %14, align 4, !tbaa !108
  %37 = load ptr, ptr %11, align 8, !tbaa !77
  %38 = load i32, ptr %13, align 4, !tbaa !31
  %39 = sext i32 %38 to i64
  %40 = getelementptr inbounds i32, ptr %37, i64 %39
  %41 = load i32, ptr %40, align 4, !tbaa !31
  %42 = icmp ne i32 %41, 0
  br i1 %42, label %43, label %46

43:                                               ; preds = %25
  %44 = load float, ptr %14, align 4, !tbaa !108
  %45 = fneg nsz float %44
  store float %45, ptr %14, align 4, !tbaa !108
  br label %46

46:                                               ; preds = %43, %25
  br label %60

47:                                               ; preds = %18
  %48 = load i32, ptr %8, align 4, !tbaa !31
  %49 = sext i32 %48 to i64
  %50 = getelementptr inbounds [9 x float], ptr @dither_tab, i64 0, i64 %49
  %51 = load float, ptr %50, align 4, !tbaa !108
  store float %51, ptr %14, align 4, !tbaa !108
  %52 = load ptr, ptr %7, align 8, !tbaa !29
  %53 = getelementptr inbounds nuw %struct.cook, ptr %52, i32 0, i32 10
  %54 = call i32 @av_lfg_get(ptr noundef %53)
  %55 = icmp ult i32 %54, -2147483648
  br i1 %55, label %56, label %59

56:                                               ; preds = %47
  %57 = load float, ptr %14, align 4, !tbaa !108
  %58 = fneg nsz float %57
  store float %58, ptr %14, align 4, !tbaa !108
  br label %59

59:                                               ; preds = %56, %47
  br label %60

60:                                               ; preds = %59, %46
  %61 = load float, ptr %14, align 4, !tbaa !108
  %62 = load i32, ptr %9, align 4, !tbaa !31
  %63 = add nsw i32 %62, 63
  %64 = sext i32 %63 to i64
  %65 = getelementptr inbounds [127 x float], ptr @rootpow2tab, i64 0, i64 %64
  %66 = load float, ptr %65, align 4, !tbaa !108
  %67 = fmul nsz float %61, %66
  %68 = load ptr, ptr %12, align 8, !tbaa !112
  %69 = load i32, ptr %13, align 4, !tbaa !31
  %70 = sext i32 %69 to i64
  %71 = getelementptr inbounds float, ptr %68, i64 %70
  store float %67, ptr %71, align 4, !tbaa !108
  br label %72

72:                                               ; preds = %60
  %73 = load i32, ptr %13, align 4, !tbaa !31
  %74 = add nsw i32 %73, 1
  store i32 %74, ptr %13, align 4, !tbaa !31
  br label %15, !llvm.loop !120

75:                                               ; preds = %15
  call void @llvm.lifetime.end.p0(i64 4, ptr %14) #11
  call void @llvm.lifetime.end.p0(i64 4, ptr %13) #11
  ret void
}