; Function Attrs: nofree norecurse nosync nounwind memory(read, argmem: readwrite, inaccessiblemem: none) uwtable
define internal void @scalar_dequant_float(ptr noundef captures(none) %0, i32 noundef %1, i32 noundef %2, ptr noundef readonly captures(none) %3, ptr noundef readonly captures(none) %4, ptr noundef writeonly captures(none) %5) #5 {
  %7 = add nsw i32 %2, 63
  %8 = sext i32 %7 to i64
  %9 = getelementptr inbounds [127 x float], ptr @rootpow2tab, i64 0, i64 %8
  %10 = load float, ptr %9, align 4, !tbaa !66
  %11 = sext i32 %1 to i64
  %12 = getelementptr inbounds [9 x float], ptr @dither_tab, i64 0, i64 %11
  %13 = getelementptr inbounds nuw i8, ptr %0, i64 112
  %14 = getelementptr inbounds nuw i8, ptr %0, i64 368
  br label %15

15:                                               ; preds = %6, %47
  %indvars.iv = phi i64 [ 0, %6 ], [ %indvars.iv.next, %47 ]
  %16 = getelementptr inbounds nuw i32, ptr %3, i64 %indvars.iv
  %17 = load i32, ptr %16, align 4, !tbaa !92
  %.not = icmp eq i32 %17, 0
  br i1 %.not, label %26, label %18

18:                                               ; preds = %15
  %19 = sext i32 %17 to i64
  %20 = getelementptr inbounds [7 x [14 x float]], ptr @quant_centroid_tab, i64 0, i64 %11, i64 %19
  %21 = load float, ptr %20, align 4, !tbaa !66
  %22 = getelementptr inbounds nuw i32, ptr %4, i64 %indvars.iv
  %23 = load i32, ptr %22, align 4, !tbaa !92
  %.not18 = icmp eq i32 %23, 0
  br i1 %.not18, label %47, label %24

24:                                               ; preds = %18
  %25 = fneg nsz float %21
  br label %47

26:                                               ; preds = %15
  %27 = load float, ptr %12, align 4, !tbaa !66
  %28 = load i32, ptr %14, align 4, !tbaa !115
  %29 = add i32 %28, 40
  %30 = and i32 %29, 63
  %31 = zext nneg i32 %30 to i64
  %32 = getelementptr inbounds nuw [64 x i32], ptr %13, i64 0, i64 %31
  %33 = load i32, ptr %32, align 4, !tbaa !92
  %34 = add i32 %28, 9
  %35 = and i32 %34, 63
  %36 = zext nneg i32 %35 to i64
  %37 = getelementptr inbounds nuw [64 x i32], ptr %13, i64 0, i64 %36
  %38 = load i32, ptr %37, align 4, !tbaa !92
  %39 = add i32 %38, %33
  %40 = and i32 %28, 63
  %41 = zext nneg i32 %40 to i64
  %42 = getelementptr inbounds nuw [64 x i32], ptr %13, i64 0, i64 %41
  store i32 %39, ptr %42, align 4, !tbaa !92
  %43 = add i32 %28, 1
  store i32 %43, ptr %14, align 4, !tbaa !115
  %44 = icmp sgt i32 %39, -1
  br i1 %44, label %45, label %47

45:                                               ; preds = %26
  %46 = fneg nsz float %27
  br label %47

47:                                               ; preds = %26, %45, %18, %24
  %.0 = phi nsz float [ %25, %24 ], [ %21, %18 ], [ %46, %45 ], [ %27, %26 ]
  %48 = fmul nsz float %.0, %10
  %49 = getelementptr inbounds nuw float, ptr %5, i64 %indvars.iv
  store float %48, ptr %49, align 4, !tbaa !66
  %indvars.iv.next = add nuw nsw i64 %indvars.iv, 1
  %exitcond.not = icmp eq i64 %indvars.iv.next, 20
  br i1 %exitcond.not, label %50, label %15, !llvm.loop !116

50:                                               ; preds = %47
  ret void
}